Certificate:
    Data:
        Version: 3 (0x2)
        Serial Number: 3 (0x3)
        Signature Algorithm: ecdsa_with_SHA3-256
        Issuer: C=AL, ST=Algiers, L=Hussein Dey, O=QSecurity, OU=IT, CN=qsecurity.com/emailAddress=abderrahman_messaoudene@qsecurity.com
        Validity
            Not Before: Aug 16 17:52:51 2024 GMT
            Not After : Nov 14 17:52:51 2024 GMT
        Subject: C=AL, ST=Algiers, O=QSecurity, OU=IT, CN=qsecurity.com/emailAddress=ouka.lotfi@gmail.com
        Subject Public Key Info:
            Public Key Algorithm: id-ecPublicKey
                Public-Key: (256 bit)
                pub:
                    04:21:d0:0b:2a:c6:9a:8e:43:f2:14:da:1e:9f:c0:
                    a3:b2:18:1e:6b:f0:17:15:c7:f1:ab:b7:c5:a0:60:
                    2c:a7:2e:8d:97:5e:b6:66:bc:9b:05:e4:b4:70:21:
                    fb:42:ca:53:f3:cc:cd:da:89:1b:76:35:63:6f:9e:
                    7e:16:24:d6:71
                ASN1 OID: prime256v1
                NIST CURVE: P-256
        X509v3 extensions:
            X509v3 Subject Key Identifier: 
                31:D1:3E:0C:61:13:73:FD:83:9E:35:35:97:22:82:43:34:FF:88:81
            X509v3 Authority Key Identifier: 
                57:26:7A:65:86:A7:FA:55:A2:39:90:90:37:8D:D9:30:3C:98:46:04
            X509v3 Basic Constraints: 
                CA:FALSE
            X509v3 Key Usage: 
                Key Agreement
            X509v3 Subject Alternative Name: 
                email:ouka.lotfi@gmail.com
            X509v3 Issuer Alternative Name: 
                email:abderrahman_messaoudene@qsecurity.com
            X509v3 CRL Distribution Points: 
                Full Name:
                  URI:https://crl.qsecurity.com/ca-crl.pem
    Signature Algorithm: ecdsa_with_SHA3-256
    Signature Value:
        30:81:87:02:41:67:6a:f0:17:b5:a4:5c:d3:a1:d4:c6:35:c4:
        94:07:47:38:0a:aa:4c:05:e0:08:9d:f2:ad:8c:73:6d:d7:97:
        3e:e7:53:d3:c0:01:03:e1:d1:88:98:7c:17:38:11:84:dd:1f:
        29:fa:d6:fd:c2:72:85:fb:42:8e:3c:da:f0:43:b1:e6:02:42:
        00:f3:79:14:e1:11:ce:4a:69:b3:b9:2b:d2:f0:2f:6f:f3:da:
        94:39:db:46:d4:bb:cf:8e:45:33:4f:9f:21:0f:68:2f:91:33:
        0c:ff:46:c1:99:47:b7:28:5e:29:b0:96:82:6b:70:03:d3:3c:
        fd:cd:fa:fe:94:de:04:2a:b3:e2:ed:42
-----BEGIN CERTIFICATE-----
MIIDPTCCAp6gAwIBAgIBAzALBglghkgBZQMEAwowgaQxCzAJBgNVBAYTAkFMMRAw
DgYDVQQIDAdBbGdpZXJzMRQwEgYDVQQHDAtIdXNzZWluIERleTESMBAGA1UECgwJ
UVNlY3VyaXR5MQswCQYDVQQLDAJJVDEWMBQGA1UEAwwNcXNlY3VyaXR5LmNvbTE0
MDIGCSqGSIb3DQEJARYlYWJkZXJyYWhtYW5fbWVzc2FvdWRlbmVAcXNlY3VyaXR5
LmNvbTAeFw0yNDA4MTYxNzUyNTFaFw0yNDExMTQxNzUyNTFaMH0xCzAJBgNVBAYT
AkFMMRAwDgYDVQQIDAdBbGdpZXJzMRIwEAYDVQQKDAlRU2VjdXJpdHkxCzAJBgNV
BAsMAklUMRYwFAYDVQQDDA1xc2VjdXJpdHkuY29tMSMwIQYJKoZIhvcNAQkBFhRv
dWthLmxvdGZpQGdtYWlsLmNvbTBZMBMGByqGSM49AgEGCCqGSM49AwEHA0IABCHQ
CyrGmo5D8hTaHp/Ao7IYHmvwFxXH8au3xaBgLKcujZdetma8mwXktHAh+0LKU/PM
zdqJG3Y1Y2+efhYk1nGjgeUwgeIwHQYDVR0OBBYEFDHRPgxhE3P9g541NZcigkM0
/4iBMB8GA1UdIwQYMBaAFFcmemWGp/pVojmQkDeN2TA8mEYEMAkGA1UdEwQCMAAw
CwYDVR0PBAQDAgMIMB8GA1UdEQQYMBaBFG91a2EubG90ZmlAZ21haWwuY29tMDAG
A1UdEgQpMCeBJWFiZGVycmFobWFuX21lc3Nhb3VkZW5lQHFzZWN1cml0eS5jb20w
NQYDVR0fBC4wLDAqoCigJoYkaHR0cHM6Ly9jcmwucXNlY3VyaXR5LmNvbS9jYS1j
cmwucGVtMAsGCWCGSAFlAwQDCgOBiwAwgYcCQWdq8Be1pFzTodTGNcSUB0c4CqpM
BeAInfKtjHNt15c+51PTwAED4dGImHwXOBGE3R8p+tb9wnKF+0KOPNrwQ7HmAkIA
83kU4RHOSmmzuSvS8C9v89qUOdtG1LvPjkUzT58hD2gvkTMM/0bBmUe3KF4psJaC
a3AD0zz9zfr+lN4EKrPi7UI=
-----END CERTIFICATE-----
